target datalayout = "e-m:e-p270:32:32-p271:32:32-p272:64:64-i64:64-i128:128-f80:128-n8:16:32:64-S128"
target triple = "x86_64-unknown-linux-gnu"

%class.b3Solver = type { ptr, ptr, ptr, ptr, ptr, ptr, %class.b3OpenCLArray, i32, ptr, ptr, ptr, ptr, ptr, ptr, ptr, ptr, ptr, ptr, ptr, ptr, ptr }
%class.b3OpenCLArray = type <{ ptr, i64, i64, ptr, ptr, ptr, i8, i8, [6 x i8] }>

@_ZTV8b3Solver = dso_local unnamed_addr constant { [4 x ptr] } { [4 x ptr] [ptr null, ptr @_ZTI8b3Solver, ptr @_ZN8b3SolverD1Ev, ptr @_ZN8b3SolverD0Ev] }, align 8
@__clewReleaseKernel = external global ptr, align 8
@_ZTV13b3OpenCLArrayIiE = linkonce_odr dso_local unnamed_addr constant { [4 x ptr] } { [4 x ptr] [ptr null, ptr @_ZTI13b3OpenCLArrayIiE, ptr @_ZN13b3OpenCLArrayIiED2Ev, ptr @_ZN13b3OpenCLArrayIiED0Ev] }, comdat, align 8
@__clewReleaseMemObject = external global ptr, align 8

; Function Attrs: mustprogress uwtable
define linkonce_odr dso_local void @_ZN13b3OpenCLArrayIiE10deallocateEv(ptr noundef nonnull align 8 dereferenceable(50) %this) #0 comdat align 2 {
entry:
  %this.addr = alloca ptr, align 8
  store ptr %this, ptr %this.addr, align 8
  %this1 = load ptr, ptr %this.addr, align 8
  %m_clBuffer = getelementptr inbounds %class.b3OpenCLArray, ptr %this1, i32 0, i32 3
  %0 = load ptr, ptr %m_clBuffer, align 8
  %tobool = icmp ne ptr %0, null
  br i1 %tobool, label %land.lhs.true, label %if.end

land.lhs.true:                                    ; preds = %entry
  %m_ownsMemory = getelementptr inbounds %class.b3OpenCLArray, ptr %this1, i32 0, i32 6
  %1 = load i8, ptr %m_ownsMemory, align 8
  %tobool2 = trunc i8 %1 to i1
  br i1 %tobool2, label %if.then, label %if.end

if.then:                                          ; preds = %land.lhs.true
  %2 = load ptr, ptr @__clewReleaseMemObject, align 8
  %m_clBuffer3 = getelementptr inbounds %class.b3OpenCLArray, ptr %this1, i32 0, i32 3
  %3 = load ptr, ptr %m_clBuffer3, align 8
  %call = call i32 %2(ptr noundef %3)
  br label %if.end

if.end:                                           ; preds = %if.then, %land.lhs.true, %entry
  %m_clBuffer4 = getelementptr inbounds %class.b3OpenCLArray, ptr %this1, i32 0, i32 3
  store ptr null, ptr %m_clBuffer4, align 8
  %m_capacity = getelementptr inbounds %class.b3OpenCLArray, ptr %this1, i32 0, i32 2
  store i64 0, ptr %m_capacity, align 8
  ret void
}

; Function Attrs: mustprogress nounwind uwtable
define linkonce_odr dso_local void @_ZN13b3OpenCLArrayIiED2Ev(ptr noundef nonnull align 8 dereferenceable(50) %this) unnamed_addr #1 comdat align 2 personality ptr @__gxx_personality_v0 {
entry:
  %this.addr = alloca ptr, align 8
  store ptr %this, ptr %this.addr, align 8
  %this1 = load ptr, ptr %this.addr, align 8
  store ptr getelementptr inbounds ({ [4 x ptr] }, ptr @_ZTV13b3OpenCLArrayIiE, i32 0, i32 0, i32 2), ptr %this1, align 8
  invoke void @_ZN13b3OpenCLArrayIiE10deallocateEv(ptr noundef nonnull align 8 dereferenceable(50) %this1)
          to label %invoke.cont unwind label %terminate.lpad

invoke.cont:                                      ; preds = %entry
  %m_size = getelementptr inbounds %class.b3OpenCLArray, ptr %this1, i32 0, i32 1
  store i64 0, ptr %m_size, align 8
  %m_capacity = getelementptr inbounds %class.b3OpenCLArray, ptr %this1, i32 0, i32 2
  store i64 0, ptr %m_capacity, align 8
  ret void

terminate.lpad:                                   ; preds = %entry
  %0 = landingpad { ptr, i32 }
          catch ptr null
  %1 = extractvalue { ptr, i32 } %0, 0
  call void @__clang_call_terminate(ptr %1) #15
  unreachable
}

; Function Attrs: mustprogress nounwind uwtable
define dso_local void @_ZN8b3SolverD2Ev(ptr noundef nonnull align 8 dereferenceable(216) %this) unnamed_addr #1 align 2 personality ptr @__gxx_personality_v0 {
entry:
  %this.addr = alloca ptr, align 8
  store ptr %this, ptr %this.addr, align 8
  %this1 = load ptr, ptr %this.addr, align 8
  store ptr getelementptr inbounds ({ [4 x ptr] }, ptr @_ZTV8b3Solver, i32 0, i32 0, i32 2), ptr %this1, align 8
  %m_offsets = getelementptr inbounds %class.b3Solver, ptr %this1, i32 0, i32 5
  %0 = load ptr, ptr %m_offsets, align 8
  %isnull = icmp eq ptr %0, null
  br i1 %isnull, label %delete.end, label %delete.notnull

delete.notnull:                                   ; preds = %entry
  %vtable = load ptr, ptr %0, align 8
  %vfn = getelementptr inbounds ptr, ptr %vtable, i64 1
  %1 = load ptr, ptr %vfn, align 8
  call void %1(ptr noundef nonnull align 8 dereferenceable(50) %0) #12
  br label %delete.end

delete.end:                                       ; preds = %delete.notnull, %entry
  %m_numConstraints = getelementptr inbounds %class.b3Solver, ptr %this1, i32 0, i32 4
  %2 = load ptr, ptr %m_numConstraints, align 8
  %isnull2 = icmp eq ptr %2, null
  br i1 %isnull2, label %delete.end6, label %delete.notnull3

delete.notnull3:                                  ; preds = %delete.end
  %vtable4 = load ptr, ptr %2, align 8
  %vfn5 = getelementptr inbounds ptr, ptr %vtable4, i64 1
  %3 = load ptr, ptr %vfn5, align 8
  call void %3(ptr noundef nonnull align 8 dereferenceable(50) %2) #12
  br label %delete.end6

delete.end6:                                      ; preds = %delete.notnull3, %delete.end
  %m_sortDataBuffer = getelementptr inbounds %class.b3Solver, ptr %this1, i32 0, i32 19
  %4 = load ptr, ptr %m_sortDataBuffer, align 8
  %isnull7 = icmp eq ptr %4, null
  br i1 %isnull7, label %delete.end11, label %delete.notnull8

delete.notnull8:                                  ; preds = %delete.end6
  %vtable9 = load ptr, ptr %4, align 8
  %vfn10 = getelementptr inbounds ptr, ptr %vtable9, i64 1
  %5 = load ptr, ptr %vfn10, align 8
  call void %5(ptr noundef nonnull align 8 dereferenceable(50) %4) #12
  br label %delete.end11

delete.end11:                                     ; preds = %delete.notnull8, %delete.end6
  %m_contactBuffer2 = getelementptr inbounds %class.b3Solver, ptr %this1, i32 0, i32 20
  %6 = load ptr, ptr %m_contactBuffer2, align 8
  %isnull12 = icmp eq ptr %6, null
  br i1 %isnull12, label %delete.end16, label %delete.notnull13

delete.notnull13:                                 ; preds = %delete.end11
  %vtable14 = load ptr, ptr %6, align 8
  %vfn15 = getelementptr inbounds ptr, ptr %vtable14, i64 1
  %7 = load ptr, ptr %vfn15, align 8
  call void %7(ptr noundef nonnull align 8 dereferenceable(50) %6) #12
  br label %delete.end16

delete.end16:                                     ; preds = %delete.notnull13, %delete.end11
  %m_sort32 = getelementptr inbounds %class.b3Solver, ptr %this1, i32 0, i32 16
  %8 = load ptr, ptr %m_sort32, align 8
  %isnull17 = icmp eq ptr %8, null
  br i1 %isnull17, label %delete.end21, label %delete.notnull18

delete.notnull18:                                 ; preds = %delete.end16
  %vtable19 = load ptr, ptr %8, align 8
  %vfn20 = getelementptr inbounds ptr, ptr %vtable19, i64 1
  %9 = load ptr, ptr %vfn20, align 8
  call void %9(ptr noundef nonnull align 8 dereferenceable(128) %8) #12
  br label %delete.end21

delete.end21:                                     ; preds = %delete.notnull18, %delete.end16
  %m_scan = getelementptr inbounds %class.b3Solver, ptr %this1, i32 0, i32 18
  %10 = load ptr, ptr %m_scan, align 8
  %isnull22 = icmp eq ptr %10, null
  br i1 %isnull22, label %delete.end26, label %delete.notnull23

delete.notnull23:                                 ; preds = %delete.end21
  %vtable24 = load ptr, ptr %10, align 8
  %vfn25 = getelementptr inbounds ptr, ptr %vtable24, i64 1
  %11 = load ptr, ptr %vfn25, align 8
  call void %11(ptr noundef nonnull align 8 dereferenceable(48) %10) #12
  br label %delete.end26

delete.end26:                                     ; preds = %delete.notnull23, %delete.end21
  %m_search = getelementptr inbounds %class.b3Solver, ptr %this1, i32 0, i32 17
  %12 = load ptr, ptr %m_search, align 8
  %isnull27 = icmp eq ptr %12, null
  br i1 %isnull27, label %delete.end31, label %delete.notnull28

delete.notnull28:                                 ; preds = %delete.end26
  %vtable29 = load ptr, ptr %12, align 8
  %vfn30 = getelementptr inbounds ptr, ptr %vtable29, i64 1
  %13 = load ptr, ptr %vfn30, align 8
  call void %13(ptr noundef nonnull align 8 dereferenceable(88) %12) #12
  br label %delete.end31

delete.end31:                                     ; preds = %delete.notnull28, %delete.end26
  %14 = load ptr, ptr @__clewReleaseKernel, align 8
  %m_batchingKernel = getelementptr inbounds %class.b3Solver, ptr %this1, i32 0, i32 8
  %15 = load ptr, ptr %m_batchingKernel, align 8
  %call = invoke i32 %14(ptr noundef %15)
          to label %invoke.cont unwind label %terminate.lpad

invoke.cont:                                      ; preds = %delete.end31
  %16 = load ptr, ptr @__clewReleaseKernel, align 8
  %m_batchingKernelNew = getelementptr inbounds %class.b3Solver, ptr %this1, i32 0, i32 9
  %17 = load ptr, ptr %m_batchingKernelNew, align 8
  %call33 = invoke i32 %16(ptr noundef %17)
          to label %invoke.cont32 unwind label %terminate.lpad

invoke.cont32:                                    ; preds = %invoke.cont
  %18 = load ptr, ptr @__clewReleaseKernel, align 8
  %m_solveContactKernel = getelementptr inbounds %class.b3Solver, ptr %this1, i32 0, i32 10
  %19 = load ptr, ptr %m_solveContactKernel, align 8
  %call35 = invoke i32 %18(ptr noundef %19)
          to label %invoke.cont34 unwind label %terminate.lpad

invoke.cont34:                                    ; preds = %invoke.cont32
  %20 = load ptr, ptr @__clewReleaseKernel, align 8
  %m_solveFrictionKernel = getelementptr inbounds %class.b3Solver, ptr %this1, i32 0, i32 11
  %21 = load ptr, ptr %m_solveFrictionKernel, align 8
  %call37 = invoke i32 %20(ptr noundef %21)
          to label %invoke.cont36 unwind label %terminate.lpad

invoke.cont36:                                    ; preds = %invoke.cont34
  %22 = load ptr, ptr @__clewReleaseKernel, align 8
  %m_contactToConstraintKernel = getelementptr inbounds %class.b3Solver, ptr %this1, i32 0, i32 12
  %23 = load ptr, ptr %m_contactToConstraintKernel, align 8
  %call39 = invoke i32 %22(ptr noundef %23)
          to label %invoke.cont38 unwind label %terminate.lpad

invoke.cont38:                                    ; preds = %invoke.cont36
  %24 = load ptr, ptr @__clewReleaseKernel, align 8
  %m_setSortDataKernel = getelementptr inbounds %class.b3Solver, ptr %this1, i32 0, i32 13
  %25 = load ptr, ptr %m_setSortDataKernel, align 8
  %call41 = invoke i32 %24(ptr noundef %25)
          to label %invoke.cont40 unwind label %terminate.lpad

invoke.cont40:                                    ; preds = %invoke.cont38
  %26 = load ptr, ptr @__clewReleaseKernel, align 8
  %m_reorderContactKernel = getelementptr inbounds %class.b3Solver, ptr %this1, i32 0, i32 14
  %27 = load ptr, ptr %m_reorderContactKernel, align 8
  %call43 = invoke i32 %26(ptr noundef %27)
          to label %invoke.cont42 unwind label %terminate.lpad

invoke.cont42:                                    ; preds = %invoke.cont40
  %28 = load ptr, ptr @__clewReleaseKernel, align 8
  %m_copyConstraintKernel = getelementptr inbounds %class.b3Solver, ptr %this1, i32 0, i32 15
  %29 = load ptr, ptr %m_copyConstraintKernel, align 8
  %call45 = invoke i32 %28(ptr noundef %29)
          to label %invoke.cont44 unwind label %terminate.lpad

invoke.cont44:                                    ; preds = %invoke.cont42
  %m_batchSizes = getelementptr inbounds %class.b3Solver, ptr %this1, i32 0, i32 6
  call void @_ZN13b3OpenCLArrayIiED2Ev(ptr noundef nonnull align 8 dereferenceable(50) %m_batchSizes) #12
  ret void

terminate.lpad:                                   ; preds = %invoke.cont42, %invoke.cont40, %invoke.cont38, %invoke.cont36, %invoke.cont34, %invoke.cont32, %invoke.cont, %delete.end31
  %30 = landingpad { ptr, i32 }
          catch ptr null
  %31 = extractvalue { ptr, i32 } %30, 0
  call void @__clang_call_terminate(ptr %31) #15
  unreachable
}