; Function Attrs: mustprogress nounwind uwtable
define dso_local void @_ZN8b3SolverD2Ev(ptr nocapture noundef nonnull align 8 dereferenceable(216) %this) unnamed_addr #11 align 2 personality ptr @__gxx_personality_v0 {
entry:
  store ptr getelementptr inbounds ({ [4 x ptr] }, ptr @_ZTV8b3Solver, i64 0, i32 0, i64 2), ptr %this, align 8
  %m_offsets = getelementptr inbounds i8, ptr %this, i64 40
  %0 = load ptr, ptr %m_offsets, align 8
  %isnull = icmp eq ptr %0, null
  br i1 %isnull, label %delete.end, label %delete.notnull

delete.notnull:                                   ; preds = %entry
  %vtable = load ptr, ptr %0, align 8
  %vfn = getelementptr inbounds i8, ptr %vtable, i64 8
  %1 = load ptr, ptr %vfn, align 8
  tail call void %1(ptr noundef nonnull align 8 dereferenceable(50) %0) #22
  br label %delete.end

delete.end:                                       ; preds = %delete.notnull, %entry
  %m_numConstraints = getelementptr inbounds i8, ptr %this, i64 32
  %2 = load ptr, ptr %m_numConstraints, align 8
  %isnull2 = icmp eq ptr %2, null
  br i1 %isnull2, label %delete.end6, label %delete.notnull3

delete.notnull3:                                  ; preds = %delete.end
  %vtable4 = load ptr, ptr %2, align 8
  %vfn5 = getelementptr inbounds i8, ptr %vtable4, i64 8
  %3 = load ptr, ptr %vfn5, align 8
  tail call void %3(ptr noundef nonnull align 8 dereferenceable(50) %2) #22
  br label %delete.end6

delete.end6:                                      ; preds = %delete.notnull3, %delete.end
  %m_sortDataBuffer = getelementptr inbounds i8, ptr %this, i64 200
  %4 = load ptr, ptr %m_sortDataBuffer, align 8
  %isnull7 = icmp eq ptr %4, null
  br i1 %isnull7, label %delete.end11, label %delete.notnull8

delete.notnull8:                                  ; preds = %delete.end6
  %vtable9 = load ptr, ptr %4, align 8
  %vfn10 = getelementptr inbounds i8, ptr %vtable9, i64 8
  %5 = load ptr, ptr %vfn10, align 8
  tail call void %5(ptr noundef nonnull align 8 dereferenceable(50) %4) #22
  br label %delete.end11

delete.end11:                                     ; preds = %delete.notnull8, %delete.end6
  %m_contactBuffer2 = getelementptr inbounds i8, ptr %this, i64 208
  %6 = load ptr, ptr %m_contactBuffer2, align 8
  %isnull12 = icmp eq ptr %6, null
  br i1 %isnull12, label %delete.end16, label %delete.notnull13

delete.notnull13:                                 ; preds = %delete.end11
  %vtable14 = load ptr, ptr %6, align 8
  %vfn15 = getelementptr inbounds i8, ptr %vtable14, i64 8
  %7 = load ptr, ptr %vfn15, align 8
  tail call void %7(ptr noundef nonnull align 8 dereferenceable(50) %6) #22
  br label %delete.end16

delete.end16:                                     ; preds = %delete.notnull13, %delete.end11
  %m_sort32 = getelementptr inbounds i8, ptr %this, i64 176
  %8 = load ptr, ptr %m_sort32, align 8
  %isnull17 = icmp eq ptr %8, null
  br i1 %isnull17, label %delete.end21, label %delete.notnull18

delete.notnull18:                                 ; preds = %delete.end16
  %vtable19 = load ptr, ptr %8, align 8
  %vfn20 = getelementptr inbounds i8, ptr %vtable19, i64 8
  %9 = load ptr, ptr %vfn20, align 8
  tail call void %9(ptr noundef nonnull align 8 dereferenceable(128) %8) #22
  br label %delete.end21

delete.end21:                                     ; preds = %delete.notnull18, %delete.end16
  %m_scan = getelementptr inbounds i8, ptr %this, i64 192
  %10 = load ptr, ptr %m_scan, align 8
  %isnull22 = icmp eq ptr %10, null
  br i1 %isnull22, label %delete.end26, label %delete.notnull23

delete.notnull23:                                 ; preds = %delete.end21
  %vtable24 = load ptr, ptr %10, align 8
  %vfn25 = getelementptr inbounds i8, ptr %vtable24, i64 8
  %11 = load ptr, ptr %vfn25, align 8
  tail call void %11(ptr noundef nonnull align 8 dereferenceable(48) %10) #22
  br label %delete.end26

delete.end26:                                     ; preds = %delete.notnull23, %delete.end21
  %m_search = getelementptr inbounds i8, ptr %this, i64 184
  %12 = load ptr, ptr %m_search, align 8
  %isnull27 = icmp eq ptr %12, null
  br i1 %isnull27, label %delete.end31, label %delete.notnull28

delete.notnull28:                                 ; preds = %delete.end26
  %vtable29 = load ptr, ptr %12, align 8
  %vfn30 = getelementptr inbounds i8, ptr %vtable29, i64 8
  %13 = load ptr, ptr %vfn30, align 8
  tail call void %13(ptr noundef nonnull align 8 dereferenceable(88) %12) #22
  br label %delete.end31

delete.end31:                                     ; preds = %delete.notnull28, %delete.end26
  %14 = load ptr, ptr @__clewReleaseKernel, align 8
  %m_batchingKernel = getelementptr inbounds i8, ptr %this, i64 112
  %15 = load ptr, ptr %m_batchingKernel, align 8
  %call = invoke i32 %14(ptr noundef %15)
          to label %invoke.cont unwind label %terminate.lpad

invoke.cont:                                      ; preds = %delete.end31
  %16 = load ptr, ptr @__clewReleaseKernel, align 8
  %m_batchingKernelNew = getelementptr inbounds i8, ptr %this, i64 120
  %17 = load ptr, ptr %m_batchingKernelNew, align 8
  %call33 = invoke i32 %16(ptr noundef %17)
          to label %invoke.cont32 unwind label %terminate.lpad

invoke.cont32:                                    ; preds = %invoke.cont
  %18 = load ptr, ptr @__clewReleaseKernel, align 8
  %m_solveContactKernel = getelementptr inbounds i8, ptr %this, i64 128
  %19 = load ptr, ptr %m_solveContactKernel, align 8
  %call35 = invoke i32 %18(ptr noundef %19)
          to label %invoke.cont34 unwind label %terminate.lpad

invoke.cont34:                                    ; preds = %invoke.cont32
  %20 = load ptr, ptr @__clewReleaseKernel, align 8
  %m_solveFrictionKernel = getelementptr inbounds i8, ptr %this, i64 136
  %21 = load ptr, ptr %m_solveFrictionKernel, align 8
  %call37 = invoke i32 %20(ptr noundef %21)
          to label %invoke.cont36 unwind label %terminate.lpad

invoke.cont36:                                    ; preds = %invoke.cont34
  %22 = load ptr, ptr @__clewReleaseKernel, align 8
  %m_contactToConstraintKernel = getelementptr inbounds i8, ptr %this, i64 144
  %23 = load ptr, ptr %m_contactToConstraintKernel, align 8
  %call39 = invoke i32 %22(ptr noundef %23)
          to label %invoke.cont38 unwind label %terminate.lpad

invoke.cont38:                                    ; preds = %invoke.cont36
  %24 = load ptr, ptr @__clewReleaseKernel, align 8
  %m_setSortDataKernel = getelementptr inbounds i8, ptr %this, i64 152
  %25 = load ptr, ptr %m_setSortDataKernel, align 8
  %call41 = invoke i32 %24(ptr noundef %25)
          to label %invoke.cont40 unwind label %terminate.lpad

invoke.cont40:                                    ; preds = %invoke.cont38
  %26 = load ptr, ptr @__clewReleaseKernel, align 8
  %m_reorderContactKernel = getelementptr inbounds i8, ptr %this, i64 160
  %27 = load ptr, ptr %m_reorderContactKernel, align 8
  %call43 = invoke i32 %26(ptr noundef %27)
          to label %invoke.cont42 unwind label %terminate.lpad

invoke.cont42:                                    ; preds = %invoke.cont40
  %28 = load ptr, ptr @__clewReleaseKernel, align 8
  %m_copyConstraintKernel = getelementptr inbounds i8, ptr %this, i64 168
  %29 = load ptr, ptr %m_copyConstraintKernel, align 8
  %call45 = invoke i32 %28(ptr noundef %29)
          to label %invoke.cont44 unwind label %terminate.lpad

invoke.cont44:                                    ; preds = %invoke.cont42
  %m_batchSizes = getelementptr inbounds i8, ptr %this, i64 48
  store ptr getelementptr inbounds ({ [4 x ptr] }, ptr @_ZTV13b3OpenCLArrayIiE, i64 0, i32 0, i64 2), ptr %m_batchSizes, align 8
  %m_clBuffer.i.i = getelementptr inbounds i8, ptr %this, i64 72
  %30 = load ptr, ptr %m_clBuffer.i.i, align 8
  %tobool.not.i.i = icmp eq ptr %30, null
  br i1 %tobool.not.i.i, label %_ZN13b3OpenCLArrayIiED2Ev.exit, label %land.lhs.true.i.i

land.lhs.true.i.i:                                ; preds = %invoke.cont44
  %m_ownsMemory.i.i = getelementptr inbounds i8, ptr %this, i64 96
  %31 = load i8, ptr %m_ownsMemory.i.i, align 8
  %32 = and i8 %31, 1
  %tobool2.not.i.i = icmp eq i8 %32, 0
  br i1 %tobool2.not.i.i, label %_ZN13b3OpenCLArrayIiED2Ev.exit, label %if.then.i.i

if.then.i.i:                                      ; preds = %land.lhs.true.i.i
  %33 = load ptr, ptr @__clewReleaseMemObject, align 8
  %call.i1.i = invoke i32 %33(ptr noundef nonnull %30)
          to label %_ZN13b3OpenCLArrayIiED2Ev.exit unwind label %terminate.lpad.i

terminate.lpad.i:                                 ; preds = %if.then.i.i
  %34 = landingpad { ptr, i32 }
          catch ptr null
  %35 = extractvalue { ptr, i32 } %34, 0
  tail call void @__clang_call_terminate(ptr %35) #23
  unreachable

_ZN13b3OpenCLArrayIiED2Ev.exit:                   ; preds = %invoke.cont44, %land.lhs.true.i.i, %if.then.i.i
  %m_size.i = getelementptr inbounds i8, ptr %this, i64 56
  tail call void @llvm.memset.p0.i64(ptr noundef nonnull align 8 dereferenceable(24) %m_size.i, i8 0, i64 24, i1 false)
  ret void

terminate.lpad:                                   ; preds = %invoke.cont42, %invoke.cont40, %invoke.cont38, %invoke.cont36, %invoke.cont34, %invoke.cont32, %invoke.cont, %delete.end31
  %36 = landingpad { ptr, i32 }
          catch ptr null
  %37 = extractvalue { ptr, i32 } %36, 0
  tail call void @__clang_call_terminate(ptr %37) #23
  unreachable
}